; Function Attrs: nounwind uwtable
define internal ptr @tts_virtual_copy_minimal_tuple(ptr noundef readonly captures(none) %0) #1 {
  %2 = getelementptr inbounds nuw i8, ptr %0, i64 16
  %3 = load ptr, ptr %2, align 8
  %4 = getelementptr inbounds nuw i8, ptr %0, i64 24
  %5 = load ptr, ptr %4, align 8
  %6 = getelementptr inbounds nuw i8, ptr %0, i64 32
  %7 = load ptr, ptr %6, align 8
  %8 = tail call ptr @heap_form_minimal_tuple(ptr noundef %3, ptr noundef %5, ptr noundef %7) #14
  ret ptr %8
}